target datalayout = "e-m:e-p270:32:32-p271:32:32-p272:64:64-i64:64-i128:128-f80:128-n8:16:32:64-S128"
target triple = "x86_64-pc-linux-gnu"

%"struct.std::_Rb_tree_header" = type { %"struct.std::_Rb_tree_node_base", i64 }
%"struct.std::_Rb_tree_node_base" = type { i32, ptr, ptr, ptr }
%"class.std::__cxx11::basic_string" = type { %"struct.std::__cxx11::basic_string<char>::_Alloc_hider", i64, %union.anon }
%"struct.std::__cxx11::basic_string<char>::_Alloc_hider" = type { ptr }
%union.anon = type { i64, [8 x i8] }
%"struct.Yosys::AST::AstNode" = type <{ i32, i32, %"class.std::vector", %"class.std::map", %"class.std::__cxx11::basic_string", %"class.std::vector.6", i8, i8, i8, i8, i8, i8, i8, i8, i8, i8, i8, i8, i8, [3 x i8], i32, i32, i32, i32, double, i8, [7 x i8], %"class.std::vector.11", i32, [4 x i8], ptr, i8, i8, [6 x i8], %"class.std::__cxx11::basic_string", %"struct.Yosys::AST::AstSrcLocType", i8, i8, i8, i8, [4 x i8] }>
%"class.std::vector" = type { %"struct.std::_Vector_base" }
%"struct.std::_Vector_base" = type { %"struct.std::_Vector_base<Yosys::AST::AstNode *, std::allocator<Yosys::AST::AstNode *>>::_Vector_impl" }
%"struct.std::_Vector_base<Yosys::AST::AstNode *, std::allocator<Yosys::AST::AstNode *>>::_Vector_impl" = type { %"struct.std::_Vector_base<Yosys::AST::AstNode *, std::allocator<Yosys::AST::AstNode *>>::_Vector_impl_data" }
%"struct.std::_Vector_base<Yosys::AST::AstNode *, std::allocator<Yosys::AST::AstNode *>>::_Vector_impl_data" = type { ptr, ptr, ptr }
%"class.std::map" = type { %"class.std::_Rb_tree" }
%"class.std::_Rb_tree" = type { %"struct.std::_Rb_tree<Yosys::RTLIL::IdString, std::pair<const Yosys::RTLIL::IdString, Yosys::AST::AstNode *>, std::_Select1st<std::pair<const Yosys::RTLIL::IdString, Yosys::AST::AstNode *>>, std::less<Yosys::RTLIL::IdString>>::_Rb_tree_impl" }
%"struct.std::_Rb_tree<Yosys::RTLIL::IdString, std::pair<const Yosys::RTLIL::IdString, Yosys::AST::AstNode *>, std::_Select1st<std::pair<const Yosys::RTLIL::IdString, Yosys::AST::AstNode *>>, std::less<Yosys::RTLIL::IdString>>::_Rb_tree_impl" = type { [8 x i8], %"struct.std::_Rb_tree_header" }
%"class.std::vector.6" = type { %"struct.std::_Vector_base.7" }
%"struct.std::_Vector_base.7" = type { %"struct.std::_Vector_base<Yosys::RTLIL::State, std::allocator<Yosys::RTLIL::State>>::_Vector_impl" }
%"struct.std::_Vector_base<Yosys::RTLIL::State, std::allocator<Yosys::RTLIL::State>>::_Vector_impl" = type { %"struct.std::_Vector_base<Yosys::RTLIL::State, std::allocator<Yosys::RTLIL::State>>::_Vector_impl_data" }
%"struct.std::_Vector_base<Yosys::RTLIL::State, std::allocator<Yosys::RTLIL::State>>::_Vector_impl_data" = type { ptr, ptr, ptr }
%"class.std::vector.11" = type { %"struct.std::_Vector_base.12" }
%"struct.std::_Vector_base.12" = type { %"struct.std::_Vector_base<Yosys::AST::AstNode::dimension_t, std::allocator<Yosys::AST::AstNode::dimension_t>>::_Vector_impl" }
%"struct.std::_Vector_base<Yosys::AST::AstNode::dimension_t, std::allocator<Yosys::AST::AstNode::dimension_t>>::_Vector_impl" = type { %"struct.std::_Vector_base<Yosys::AST::AstNode::dimension_t, std::allocator<Yosys::AST::AstNode::dimension_t>>::_Vector_impl_data" }
%"struct.std::_Vector_base<Yosys::AST::AstNode::dimension_t, std::allocator<Yosys::AST::AstNode::dimension_t>>::_Vector_impl_data" = type { ptr, ptr, ptr }
%"struct.Yosys::AST::AstSrcLocType" = type { i32, i32, i32, i32 }
%"class.__gnu_cxx::__normal_iterator" = type { ptr }
%"class.__gnu_cxx::__normal_iterator.159" = type { ptr }

; Function Attrs: mustprogress nounwind uwtable
define linkonce_odr noundef nonnull align 8 dereferenceable(8) ptr @_ZNK9__gnu_cxx17__normal_iteratorIPPN5Yosys3AST7AstNodeESt6vectorIS4_SaIS4_EEE4baseEv(ptr noundef nonnull align 8 dereferenceable(8) %0) #6 comdat align 2 {
  %2 = alloca ptr, align 8
  store ptr %0, ptr %2, align 8, !tbaa !60
  %3 = load ptr, ptr %2, align 8
  %4 = getelementptr inbounds nuw %"class.__gnu_cxx::__normal_iterator", ptr %3, i32 0, i32 0
  ret ptr %4
}

; Function Attrs: mustprogress nounwind uwtable
define linkonce_odr void @_ZN9__gnu_cxx17__normal_iteratorIPPN5Yosys3AST7AstNodeESt6vectorIS4_SaIS4_EEEC2ERKS5_(ptr noundef nonnull align 8 dereferenceable(8) %0, ptr noundef nonnull align 8 dereferenceable(8) %1) unnamed_addr #6 comdat align 2 {
  %3 = alloca ptr, align 8
  %4 = alloca ptr, align 8
  store ptr %0, ptr %3, align 8, !tbaa !60
  store ptr %1, ptr %4, align 8, !tbaa !770
  %5 = load ptr, ptr %3, align 8
  %6 = getelementptr inbounds nuw %"class.__gnu_cxx::__normal_iterator", ptr %5, i32 0, i32 0
  %7 = load ptr, ptr %4, align 8, !tbaa !770
  %8 = load ptr, ptr %7, align 8, !tbaa !62
  store ptr %8, ptr %6, align 8, !tbaa !63
  ret void
}

; Function Attrs: mustprogress nounwind uwtable
define linkonce_odr noundef nonnull align 8 dereferenceable(8) ptr @_ZN9__gnu_cxx17__normal_iteratorIPPN5Yosys3AST7AstNodeESt6vectorIS4_SaIS4_EEEppEv(ptr noundef nonnull align 8 dereferenceable(8) %0) #6 comdat align 2 {
  %2 = alloca ptr, align 8
  store ptr %0, ptr %2, align 8, !tbaa !60
  %3 = load ptr, ptr %2, align 8
  %4 = getelementptr inbounds nuw %"class.__gnu_cxx::__normal_iterator", ptr %3, i32 0, i32 0
  %5 = load ptr, ptr %4, align 8, !tbaa !63
  %6 = getelementptr inbounds nuw ptr, ptr %5, i32 1
  store ptr %6, ptr %4, align 8, !tbaa !63
  ret ptr %3
}

; Function Attrs: mustprogress nounwind uwtable
define linkonce_odr ptr @_ZNK9__gnu_cxx17__normal_iteratorIPPN5Yosys3AST7AstNodeESt6vectorIS4_SaIS4_EEEplEl(ptr noundef nonnull align 8 dereferenceable(8) %0, i64 noundef %1) #6 comdat align 2 {
  %3 = alloca %"class.__gnu_cxx::__normal_iterator", align 8
  %4 = alloca ptr, align 8
  %5 = alloca i64, align 8
  %6 = alloca ptr, align 8
  store ptr %0, ptr %4, align 8, !tbaa !60
  store i64 %1, ptr %5, align 8, !tbaa !67
  %7 = load ptr, ptr %4, align 8
  call void @llvm.lifetime.start.p0(i64 8, ptr %6) #3
  %8 = getelementptr inbounds nuw %"class.__gnu_cxx::__normal_iterator", ptr %7, i32 0, i32 0
  %9 = load ptr, ptr %8, align 8, !tbaa !63
  %10 = load i64, ptr %5, align 8, !tbaa !67
  %11 = getelementptr inbounds ptr, ptr %9, i64 %10
  store ptr %11, ptr %6, align 8, !tbaa !62
  call void @_ZN9__gnu_cxx17__normal_iteratorIPPN5Yosys3AST7AstNodeESt6vectorIS4_SaIS4_EEEC2ERKS5_(ptr noundef nonnull align 8 dereferenceable(8) %3, ptr noundef nonnull align 8 dereferenceable(8) %6) #3
  call void @llvm.lifetime.end.p0(i64 8, ptr %6) #3
  %12 = getelementptr inbounds nuw %"class.__gnu_cxx::__normal_iterator", ptr %3, i32 0, i32 0
  %13 = load ptr, ptr %12, align 8
  ret ptr %13
}

; Function Attrs: mustprogress nounwind uwtable
define linkonce_odr noundef nonnull align 8 dereferenceable(8) ptr @_ZNK9__gnu_cxx17__normal_iteratorIPPN5Yosys3AST7AstNodeESt6vectorIS4_SaIS4_EEEdeEv(ptr noundef nonnull align 8 dereferenceable(8) %0) #6 comdat align 2 {
  %2 = alloca ptr, align 8
  store ptr %0, ptr %2, align 8, !tbaa !60
  %3 = load ptr, ptr %2, align 8
  %4 = getelementptr inbounds nuw %"class.__gnu_cxx::__normal_iterator", ptr %3, i32 0, i32 0
  %5 = load ptr, ptr %4, align 8, !tbaa !63
  ret ptr %5
}

; Function Attrs: inlinehint mustprogress nounwind uwtable
define linkonce_odr noundef zeroext i1 @_ZN9__gnu_cxxneIPPN5Yosys3AST7AstNodeESt6vectorIS4_SaIS4_EEEEbRKNS_17__normal_iteratorIT_T0_EESE_(ptr noundef nonnull align 8 dereferenceable(8) %0, ptr noundef nonnull align 8 dereferenceable(8) %1) #7 comdat {
  %3 = alloca ptr, align 8
  %4 = alloca ptr, align 8
  store ptr %0, ptr %3, align 8, !tbaa !60
  store ptr %1, ptr %4, align 8, !tbaa !60
  %5 = load ptr, ptr %3, align 8, !tbaa !60
  %6 = call noundef nonnull align 8 dereferenceable(8) ptr @_ZNK9__gnu_cxx17__normal_iteratorIPPN5Yosys3AST7AstNodeESt6vectorIS4_SaIS4_EEE4baseEv(ptr noundef nonnull align 8 dereferenceable(8) %5) #3
  %7 = load ptr, ptr %6, align 8, !tbaa !62
  %8 = load ptr, ptr %4, align 8, !tbaa !60
  %9 = call noundef nonnull align 8 dereferenceable(8) ptr @_ZNK9__gnu_cxx17__normal_iteratorIPPN5Yosys3AST7AstNodeESt6vectorIS4_SaIS4_EEE4baseEv(ptr noundef nonnull align 8 dereferenceable(8) %8) #3
  %10 = load ptr, ptr %9, align 8, !tbaa !62
  %11 = icmp ne ptr %7, %10
  ret i1 %11
}

; Function Attrs: mustprogress nounwind uwtable
define linkonce_odr ptr @_ZNSt6vectorIPN5Yosys3AST7AstNodeESaIS3_EE3endEv(ptr noundef nonnull align 8 dereferenceable(24) %0) #6 comdat align 2 {
  %2 = alloca %"class.__gnu_cxx::__normal_iterator", align 8
  %3 = alloca ptr, align 8
  store ptr %0, ptr %3, align 8, !tbaa !52
  %4 = load ptr, ptr %3, align 8
  %5 = getelementptr inbounds nuw %"struct.std::_Vector_base", ptr %4, i32 0, i32 0
  %6 = getelementptr inbounds nuw %"struct.std::_Vector_base<Yosys::AST::AstNode *, std::allocator<Yosys::AST::AstNode *>>::_Vector_impl_data", ptr %5, i32 0, i32 1
  call void @_ZN9__gnu_cxx17__normal_iteratorIPPN5Yosys3AST7AstNodeESt6vectorIS4_SaIS4_EEEC2ERKS5_(ptr noundef nonnull align 8 dereferenceable(8) %2, ptr noundef nonnull align 8 dereferenceable(8) %6) #3
  %7 = getelementptr inbounds nuw %"class.__gnu_cxx::__normal_iterator", ptr %2, i32 0, i32 0
  %8 = load ptr, ptr %7, align 8
  ret ptr %8
}

; Function Attrs: mustprogress uwtable
define linkonce_odr ptr @_ZNSt6vectorIPN5Yosys3AST7AstNodeESaIS3_EE6insertEN9__gnu_cxx17__normal_iteratorIPKS3_S5_EEOS3_(ptr noundef nonnull align 8 dereferenceable(24) %0, ptr %1, ptr noundef nonnull align 8 dereferenceable(8) %2) #4 comdat align 2 {
  %4 = alloca %"class.__gnu_cxx::__normal_iterator", align 8
  %5 = alloca %"class.__gnu_cxx::__normal_iterator.159", align 8
  %6 = alloca ptr, align 8
  %7 = alloca ptr, align 8
  %8 = alloca %"class.__gnu_cxx::__normal_iterator.159", align 8
  %9 = getelementptr inbounds nuw %"class.__gnu_cxx::__normal_iterator.159", ptr %5, i32 0, i32 0
  store ptr %1, ptr %9, align 8
  store ptr %0, ptr %6, align 8, !tbaa !52
  store ptr %2, ptr %7, align 8, !tbaa !62
  %10 = load ptr, ptr %6, align 8
  call void @llvm.memcpy.p0.p0.i64(ptr align 8 %8, ptr align 8 %5, i64 8, i1 false), !tbaa.struct !424
  %11 = load ptr, ptr %7, align 8, !tbaa !62
  %12 = getelementptr inbounds nuw %"class.__gnu_cxx::__normal_iterator.159", ptr %8, i32 0, i32 0
  %13 = load ptr, ptr %12, align 8
  %14 = call ptr @_ZNSt6vectorIPN5Yosys3AST7AstNodeESaIS3_EE14_M_insert_rvalEN9__gnu_cxx17__normal_iteratorIPKS3_S5_EEOS3_(ptr noundef nonnull align 8 dereferenceable(24) %10, ptr %13, ptr noundef nonnull align 8 dereferenceable(8) %11)
  %15 = getelementptr inbounds nuw %"class.__gnu_cxx::__normal_iterator", ptr %4, i32 0, i32 0
  store ptr %14, ptr %15, align 8
  %16 = getelementptr inbounds nuw %"class.__gnu_cxx::__normal_iterator", ptr %4, i32 0, i32 0
  %17 = load ptr, ptr %16, align 8
  ret ptr %17
}

; Function Attrs: mustprogress nounwind uwtable
define linkonce_odr void @_ZN9__gnu_cxx17__normal_iteratorIPKPN5Yosys3AST7AstNodeESt6vectorIS4_SaIS4_EEEC2IPS4_vEERKNS0_IT_S9_EE(ptr noundef nonnull align 8 dereferenceable(8) %0, ptr noundef nonnull align 8 dereferenceable(8) %1) unnamed_addr #6 comdat align 2 {
  %3 = alloca ptr, align 8
  %4 = alloca ptr, align 8
  store ptr %0, ptr %3, align 8, !tbaa !401
  store ptr %1, ptr %4, align 8, !tbaa !60
  %5 = load ptr, ptr %3, align 8
  %6 = getelementptr inbounds nuw %"class.__gnu_cxx::__normal_iterator.159", ptr %5, i32 0, i32 0
  %7 = load ptr, ptr %4, align 8, !tbaa !60
  %8 = call noundef nonnull align 8 dereferenceable(8) ptr @_ZNK9__gnu_cxx17__normal_iteratorIPPN5Yosys3AST7AstNodeESt6vectorIS4_SaIS4_EEE4baseEv(ptr noundef nonnull align 8 dereferenceable(8) %7) #3
  %9 = load ptr, ptr %8, align 8, !tbaa !62
  store ptr %9, ptr %6, align 8, !tbaa !403
  ret void
}

; Function Attrs: mustprogress nounwind uwtable
define linkonce_odr ptr @_ZNSt6vectorIPN5Yosys3AST7AstNodeESaIS3_EE5beginEv(ptr noundef nonnull align 8 dereferenceable(24) %0) #6 comdat align 2 {
  %2 = alloca %"class.__gnu_cxx::__normal_iterator", align 8
  %3 = alloca ptr, align 8
  store ptr %0, ptr %3, align 8, !tbaa !52
  %4 = load ptr, ptr %3, align 8
  %5 = getelementptr inbounds nuw %"struct.std::_Vector_base", ptr %4, i32 0, i32 0
  %6 = getelementptr inbounds nuw %"struct.std::_Vector_base<Yosys::AST::AstNode *, std::allocator<Yosys::AST::AstNode *>>::_Vector_impl_data", ptr %5, i32 0, i32 0
  call void @_ZN9__gnu_cxx17__normal_iteratorIPPN5Yosys3AST7AstNodeESt6vectorIS4_SaIS4_EEEC2ERKS5_(ptr noundef nonnull align 8 dereferenceable(8) %2, ptr noundef nonnull align 8 dereferenceable(8) %6) #3
  %7 = getelementptr inbounds nuw %"class.__gnu_cxx::__normal_iterator", ptr %2, i32 0, i32 0
  %8 = load ptr, ptr %7, align 8
  ret ptr %8
}

; Function Attrs: mustprogress uwtable
define internal void @_ZN5YosysL14prepend_rangesERPNS_3AST7AstNodeES2_(ptr noundef nonnull align 8 dereferenceable(8) %0, ptr noundef %1) #4 personality ptr @__gxx_personality_v0 {
  %3 = alloca ptr, align 8
  %4 = alloca ptr, align 8
  %5 = alloca ptr, align 8
  %6 = alloca i32, align 4
  %7 = alloca %"class.__gnu_cxx::__normal_iterator.159", align 8
  %8 = alloca %"class.__gnu_cxx::__normal_iterator", align 8
  %9 = alloca ptr, align 8
  %10 = alloca %"class.__gnu_cxx::__normal_iterator", align 8
  %11 = alloca i32, align 4
  %12 = alloca ptr, align 8
  %13 = alloca %"class.__gnu_cxx::__normal_iterator", align 8
  %14 = alloca %"class.__gnu_cxx::__normal_iterator", align 8
  %15 = alloca ptr, align 8
  %16 = alloca %"class.__gnu_cxx::__normal_iterator.159", align 8
  %17 = alloca %"class.__gnu_cxx::__normal_iterator", align 8
  %18 = alloca %"class.__gnu_cxx::__normal_iterator", align 8
  %19 = alloca ptr, align 8
  %20 = alloca %"class.__gnu_cxx::__normal_iterator", align 8
  store ptr %0, ptr %3, align 8, !tbaa !62
  store ptr %1, ptr %4, align 8, !tbaa !6
  %21 = load ptr, ptr %3, align 8, !tbaa !62
  %22 = load ptr, ptr %21, align 8, !tbaa !6
  %23 = getelementptr inbounds nuw %"struct.Yosys::AST::AstNode", ptr %22, i32 0, i32 1
  %24 = load i32, ptr %23, align 4, !tbaa !51
  %25 = icmp eq i32 %24, 14
  br i1 %25, label %26, label %36

26:                                               ; preds = %2
  %27 = call noalias noundef nonnull ptr @_Znwm(i64 noundef 288) #24
  %28 = load ptr, ptr %3, align 8, !tbaa !62
  %29 = load ptr, ptr %28, align 8, !tbaa !6
  invoke void @_ZN5Yosys3AST7AstNodeC1ENS0_11AstNodeTypeEPS1_S3_S3_S3_(ptr noundef nonnull align 8 dereferenceable(284) %27, i32 noundef 15, ptr noundef %29, ptr noundef null, ptr noundef null, ptr noundef null)
          to label %30 unwind label %32

30:                                               ; preds = %26
  %31 = load ptr, ptr %3, align 8, !tbaa !62
  store ptr %27, ptr %31, align 8, !tbaa !6
  br label %36

32:                                               ; preds = %26
  %33 = landingpad { ptr, i32 }
          cleanup
  %34 = extractvalue { ptr, i32 } %33, 0
  store ptr %34, ptr %5, align 8
  %35 = extractvalue { ptr, i32 } %33, 1
  store i32 %35, ptr %6, align 4
  call void @_ZdlPvm(ptr noundef %27, i64 noundef 288) #25
  br label %94

36:                                               ; preds = %30, %2
  %37 = load ptr, ptr %4, align 8, !tbaa !6
  %38 = getelementptr inbounds nuw %"struct.Yosys::AST::AstNode", ptr %37, i32 0, i32 1
  %39 = load i32, ptr %38, align 4, !tbaa !51
  %40 = icmp eq i32 %39, 14
  br i1 %40, label %41, label %56

41:                                               ; preds = %36
  %42 = load ptr, ptr %3, align 8, !tbaa !62
  %43 = load ptr, ptr %42, align 8, !tbaa !6
  %44 = getelementptr inbounds nuw %"struct.Yosys::AST::AstNode", ptr %43, i32 0, i32 2
  call void @llvm.lifetime.start.p0(i64 8, ptr %8) #3
  %45 = load ptr, ptr %3, align 8, !tbaa !62
  %46 = load ptr, ptr %45, align 8, !tbaa !6
  %47 = getelementptr inbounds nuw %"struct.Yosys::AST::AstNode", ptr %46, i32 0, i32 2
  %48 = call ptr @_ZNSt6vectorIPN5Yosys3AST7AstNodeESaIS3_EE5beginEv(ptr noundef nonnull align 8 dereferenceable(24) %47) #3
  %49 = getelementptr inbounds nuw %"class.__gnu_cxx::__normal_iterator", ptr %8, i32 0, i32 0
  store ptr %48, ptr %49, align 8
  call void @_ZN9__gnu_cxx17__normal_iteratorIPKPN5Yosys3AST7AstNodeESt6vectorIS4_SaIS4_EEEC2IPS4_vEERKNS0_IT_S9_EE(ptr noundef nonnull align 8 dereferenceable(8) %7, ptr noundef nonnull align 8 dereferenceable(8) %8) #3
  call void @llvm.lifetime.start.p0(i64 8, ptr %9) #3
  %50 = load ptr, ptr %4, align 8, !tbaa !6
  %51 = call noundef ptr @_ZNK5Yosys3AST7AstNode5cloneEv(ptr noundef nonnull align 8 dereferenceable(284) %50)
  store ptr %51, ptr %9, align 8, !tbaa !6
  %52 = getelementptr inbounds nuw %"class.__gnu_cxx::__normal_iterator.159", ptr %7, i32 0, i32 0
  %53 = load ptr, ptr %52, align 8
  %54 = call ptr @_ZNSt6vectorIPN5Yosys3AST7AstNodeESaIS3_EE6insertEN9__gnu_cxx17__normal_iteratorIPKS3_S5_EEOS3_(ptr noundef nonnull align 8 dereferenceable(24) %44, ptr %53, ptr noundef nonnull align 8 dereferenceable(8) %9)
  %55 = getelementptr inbounds nuw %"class.__gnu_cxx::__normal_iterator", ptr %10, i32 0, i32 0
  store ptr %54, ptr %55, align 8
  call void @llvm.lifetime.end.p0(i64 8, ptr %9) #3
  call void @llvm.lifetime.end.p0(i64 8, ptr %8) #3
  br label %93

56:                                               ; preds = %36
  call void @llvm.lifetime.start.p0(i64 4, ptr %11) #3
  store i32 0, ptr %11, align 4, !tbaa !74
  call void @llvm.lifetime.start.p0(i64 8, ptr %12) #3
  %57 = load ptr, ptr %4, align 8, !tbaa !6
  %58 = getelementptr inbounds nuw %"struct.Yosys::AST::AstNode", ptr %57, i32 0, i32 2
  store ptr %58, ptr %12, align 8, !tbaa !52
  call void @llvm.lifetime.start.p0(i64 8, ptr %13) #3
  %59 = load ptr, ptr %12, align 8, !tbaa !52
  %60 = call ptr @_ZNSt6vectorIPN5Yosys3AST7AstNodeESaIS3_EE5beginEv(ptr noundef nonnull align 8 dereferenceable(24) %59) #3
  %61 = getelementptr inbounds nuw %"class.__gnu_cxx::__normal_iterator", ptr %13, i32 0, i32 0
  store ptr %60, ptr %61, align 8
  call void @llvm.lifetime.start.p0(i64 8, ptr %14) #3
  %62 = load ptr, ptr %12, align 8, !tbaa !52
  %63 = call ptr @_ZNSt6vectorIPN5Yosys3AST7AstNodeESaIS3_EE3endEv(ptr noundef nonnull align 8 dereferenceable(24) %62) #3
  %64 = getelementptr inbounds nuw %"class.__gnu_cxx::__normal_iterator", ptr %14, i32 0, i32 0
  store ptr %63, ptr %64, align 8
  br label %65

65:                                               ; preds = %90, %56
  %66 = call noundef zeroext i1 @_ZN9__gnu_cxxneIPPN5Yosys3AST7AstNodeESt6vectorIS4_SaIS4_EEEEbRKNS_17__normal_iteratorIT_T0_EESE_(ptr noundef nonnull align 8 dereferenceable(8) %13, ptr noundef nonnull align 8 dereferenceable(8) %14) #3
  br i1 %66, label %68, label %67

67:                                               ; preds = %65
  call void @llvm.lifetime.end.p0(i64 8, ptr %14) #3
  call void @llvm.lifetime.end.p0(i64 8, ptr %13) #3
  call void @llvm.lifetime.end.p0(i64 8, ptr %12) #3
  br label %92

68:                                               ; preds = %65
  call void @llvm.lifetime.start.p0(i64 8, ptr %15) #3
  %69 = call noundef nonnull align 8 dereferenceable(8) ptr @_ZNK9__gnu_cxx17__normal_iteratorIPPN5Yosys3AST7AstNodeESt6vectorIS4_SaIS4_EEEdeEv(ptr noundef nonnull align 8 dereferenceable(8) %13) #3
  %70 = load ptr, ptr %69, align 8, !tbaa !6
  store ptr %70, ptr %15, align 8, !tbaa !6
  %71 = load ptr, ptr %3, align 8, !tbaa !62
  %72 = load ptr, ptr %71, align 8, !tbaa !6
  %73 = getelementptr inbounds nuw %"struct.Yosys::AST::AstNode", ptr %72, i32 0, i32 2
  call void @llvm.lifetime.start.p0(i64 8, ptr %17) #3
  call void @llvm.lifetime.start.p0(i64 8, ptr %18) #3
  %74 = load ptr, ptr %3, align 8, !tbaa !62
  %75 = load ptr, ptr %74, align 8, !tbaa !6
  %76 = getelementptr inbounds nuw %"struct.Yosys::AST::AstNode", ptr %75, i32 0, i32 2
  %77 = call ptr @_ZNSt6vectorIPN5Yosys3AST7AstNodeESaIS3_EE5beginEv(ptr noundef nonnull align 8 dereferenceable(24) %76) #3
  %78 = getelementptr inbounds nuw %"class.__gnu_cxx::__normal_iterator", ptr %18, i32 0, i32 0
  store ptr %77, ptr %78, align 8
  %79 = load i32, ptr %11, align 4, !tbaa !74
  %80 = add nsw i32 %79, 1
  store i32 %80, ptr %11, align 4, !tbaa !74
  %81 = sext i32 %79 to i64
  %82 = call ptr @_ZNK9__gnu_cxx17__normal_iteratorIPPN5Yosys3AST7AstNodeESt6vectorIS4_SaIS4_EEEplEl(ptr noundef nonnull align 8 dereferenceable(8) %18, i64 noundef %81) #3
  %83 = getelementptr inbounds nuw %"class.__gnu_cxx::__normal_iterator", ptr %17, i32 0, i32 0
  store ptr %82, ptr %83, align 8
  call void @_ZN9__gnu_cxx17__normal_iteratorIPKPN5Yosys3AST7AstNodeESt6vectorIS4_SaIS4_EEEC2IPS4_vEERKNS0_IT_S9_EE(ptr noundef nonnull align 8 dereferenceable(8) %16, ptr noundef nonnull align 8 dereferenceable(8) %17) #3
  call void @llvm.lifetime.start.p0(i64 8, ptr %19) #3
  %84 = load ptr, ptr %15, align 8, !tbaa !6
  %85 = call noundef ptr @_ZNK5Yosys3AST7AstNode5cloneEv(ptr noundef nonnull align 8 dereferenceable(284) %84)
  store ptr %85, ptr %19, align 8, !tbaa !6
  %86 = getelementptr inbounds nuw %"class.__gnu_cxx::__normal_iterator.159", ptr %16, i32 0, i32 0
  %87 = load ptr, ptr %86, align 8
  %88 = call ptr @_ZNSt6vectorIPN5Yosys3AST7AstNodeESaIS3_EE6insertEN9__gnu_cxx17__normal_iteratorIPKS3_S5_EEOS3_(ptr noundef nonnull align 8 dereferenceable(24) %73, ptr %87, ptr noundef nonnull align 8 dereferenceable(8) %19)
  %89 = getelementptr inbounds nuw %"class.__gnu_cxx::__normal_iterator", ptr %20, i32 0, i32 0
  store ptr %88, ptr %89, align 8
  call void @llvm.lifetime.end.p0(i64 8, ptr %19) #3
  call void @llvm.lifetime.end.p0(i64 8, ptr %18) #3
  call void @llvm.lifetime.end.p0(i64 8, ptr %17) #3
  call void @llvm.lifetime.end.p0(i64 8, ptr %15) #3
  br label %90

90:                                               ; preds = %68
  %91 = call noundef nonnull align 8 dereferenceable(8) ptr @_ZN9__gnu_cxx17__normal_iteratorIPPN5Yosys3AST7AstNodeESt6vectorIS4_SaIS4_EEEppEv(ptr noundef nonnull align 8 dereferenceable(8) %13) #3
  br label %65

92:                                               ; preds = %67
  call void @llvm.lifetime.end.p0(i64 4, ptr %11) #3
  br label %93

93:                                               ; preds = %92, %41
  ret void

94:                                               ; preds = %32
  %95 = load ptr, ptr %5, align 8
  %96 = load i32, ptr %6, align 4
  %97 = insertvalue { ptr, i32 } poison, ptr %95, 0
  %98 = insertvalue { ptr, i32 } %97, i32 %96, 1
  resume { ptr, i32 } %98
}