; Function Attrs: mustprogress uwtable
define internal fastcc void @_ZN5YosysL14prepend_rangesERPNS_3AST7AstNodeES2_(ptr noundef nonnull align 8 captures(none) dereferenceable(8) %0, ptr noundef %1) unnamed_addr #3 personality ptr @__gxx_personality_v0 {
  %3 = alloca ptr, align 8
  %4 = alloca ptr, align 8
  %5 = load ptr, ptr %0, align 8, !tbaa !51
  %6 = getelementptr inbounds nuw i8, ptr %5, i64 4
  %7 = load i32, ptr %6, align 4, !tbaa !49
  %8 = icmp eq i32 %7, 14
  br i1 %8, label %9, label %14

9:                                                ; preds = %2
  %10 = tail call noalias noundef nonnull dereferenceable(288) ptr @_Znwm(i64 noundef 288) #40
  invoke void @_ZN5Yosys3AST7AstNodeC1ENS0_11AstNodeTypeEPS1_S3_S3_S3_(ptr noundef nonnull align 8 dereferenceable(284) %10, i32 noundef 15, ptr noundef nonnull %5, ptr noundef null, ptr noundef null, ptr noundef null)
          to label %11 unwind label %12

11:                                               ; preds = %9
  store ptr %10, ptr %0, align 8, !tbaa !51
  br label %14

12:                                               ; preds = %9
  %13 = landingpad { ptr, i32 }
          cleanup
  tail call void @_ZdlPvm(ptr noundef nonnull %10, i64 noundef 288) #38
  resume { ptr, i32 } %13

14:                                               ; preds = %11, %2
  %15 = phi ptr [ %10, %11 ], [ %5, %2 ]
  %16 = getelementptr inbounds nuw i8, ptr %1, i64 4
  %17 = load i32, ptr %16, align 4, !tbaa !49
  %18 = icmp eq i32 %17, 14
  br i1 %18, label %19, label %24

19:                                               ; preds = %14
  %20 = getelementptr inbounds nuw i8, ptr %15, i64 8
  %21 = load ptr, ptr %20, align 8, !tbaa !50
  call void @llvm.lifetime.start.p0(i64 8, ptr nonnull %3) #35
  %22 = tail call noundef ptr @_ZNK5Yosys3AST7AstNode5cloneEv(ptr noundef nonnull align 8 dereferenceable(284) %1)
  store ptr %22, ptr %3, align 8, !tbaa !51
  %23 = call ptr @_ZNSt6vectorIPN5Yosys3AST7AstNodeESaIS3_EE14_M_insert_rvalEN9__gnu_cxx17__normal_iteratorIPKS3_S5_EEOS3_(ptr noundef nonnull align 8 dereferenceable(24) %20, ptr %21, ptr noundef nonnull align 8 dereferenceable(8) %3)
  call void @llvm.lifetime.end.p0(i64 8, ptr nonnull %3) #35
  br label %.loopexit

24:                                               ; preds = %14
  %25 = getelementptr inbounds nuw i8, ptr %1, i64 8
  %26 = load ptr, ptr %25, align 8, !tbaa !50
  %27 = getelementptr inbounds nuw i8, ptr %1, i64 16
  %28 = load ptr, ptr %27, align 8, !tbaa !50
  %.not24 = icmp eq ptr %26, %28
  br i1 %.not24, label %.loopexit, label %.lr.ph

.lr.ph:                                           ; preds = %24, %.lr.ph
  %indvars.iv = phi i64 [ %indvars.iv.next, %.lr.ph ], [ 0, %24 ]
  %.sroa.019.025 = phi ptr [ %36, %.lr.ph ], [ %26, %24 ]
  %29 = load ptr, ptr %.sroa.019.025, align 8, !tbaa !51
  %30 = load ptr, ptr %0, align 8, !tbaa !51
  %31 = getelementptr inbounds nuw i8, ptr %30, i64 8
  %32 = load ptr, ptr %31, align 8, !tbaa !50
  %indvars.iv.next = add nuw nsw i64 %indvars.iv, 1
  %33 = getelementptr inbounds nuw ptr, ptr %32, i64 %indvars.iv
  call void @llvm.lifetime.start.p0(i64 8, ptr nonnull %4) #35
  %34 = call noundef ptr @_ZNK5Yosys3AST7AstNode5cloneEv(ptr noundef nonnull align 8 dereferenceable(284) %29)
  store ptr %34, ptr %4, align 8, !tbaa !51
  %35 = call ptr @_ZNSt6vectorIPN5Yosys3AST7AstNodeESaIS3_EE14_M_insert_rvalEN9__gnu_cxx17__normal_iteratorIPKS3_S5_EEOS3_(ptr noundef nonnull align 8 dereferenceable(24) %31, ptr %33, ptr noundef nonnull align 8 dereferenceable(8) %4)
  call void @llvm.lifetime.end.p0(i64 8, ptr nonnull %4) #35
  %36 = getelementptr inbounds nuw i8, ptr %.sroa.019.025, i64 8
  %.not = icmp eq ptr %36, %28
  br i1 %.not, label %.loopexit, label %.lr.ph

.loopexit:                                        ; preds = %.lr.ph, %24, %19
  ret void
}